EXPORTS 
	??_R0?AVbad_alloc@std@@@8 	 DATA
	??_R0?AVbad_array_new_length@std@@@8 	 DATA
	??_R0?AVexception@std@@@8 	 DATA
	??$?0$$V@?$_Compressed_pair@V?$allocator@V?$Matrix@N$0?0$00$0A@$0?0$00@Eigen@@@std@@V?$_Vector_val@U?$_Simple_types@V?$Matrix@N$0?0$00$0A@$0?0$00@Eigen@@@std@@@2@$00@std@@QEAA@U_Zero_then_variadic_args_t@1@@Z
	??$?0V?$Matrix@N$0?0$00$0A@$0?0$00@Eigen@@@?$CommaInitializer@V?$Matrix@N$0?0$00$0A@$0?0$00@Eigen@@@Eigen@@QEAA@AEAV?$Matrix@N$0?0$00$0A@$0?0$00@1@AEBV?$DenseBase@V?$Matrix@N$0?0$00$0A@$0?0$00@Eigen@@@1@@Z
	??$?0V?$Matrix@N$0?0$00$0A@$0?0$00@Eigen@@@?$allocator@U_Container_proxy@std@@@std@@QEAA@AEBV?$allocator@V?$Matrix@N$0?0$00$0A@$0?0$00@Eigen@@@1@@Z
	??$?0_J_J@?$Matrix@N$0?0$00$0A@$0?0$00@Eigen@@QEAA@AEB_J0@Z
	??$?4V?$Matrix@N$0?0$00$0A@$0?0$00@Eigen@@@?$MatrixBase@V?$Block@V?$Matrix@N$0?0$00$0A@$0?0$00@Eigen@@$0?0$0?0$0A@@Eigen@@@Eigen@@QEAAAEAV?$Block@V?$Matrix@N$0?0$00$0A@$0?0$00@Eigen@@$0?0$0?0$0A@@1@AEBV?$DenseBase@V?$Matrix@N$0?0$00$0A@$0?0$00@Eigen@@@1@@Z
	??$?6U?$char_traits@D@std@@@std@@YAAEAV?$basic_ostream@DU?$char_traits@D@std@@@0@AEAV10@PEBD@Z
	??$?6V?$Matrix@N$0?0$00$0A@$0?0$00@Eigen@@@?$DenseBase@V?$Matrix@N$0?0$00$0A@$0?0$00@Eigen@@@Eigen@@QEAA?AU?$CommaInitializer@V?$Matrix@N$0?0$00$0A@$0?0$00@Eigen@@@1@AEBV01@@Z
	??$_Alloc_proxy@V?$allocator@U_Container_proxy@std@@@std@@@_Container_base12@std@@QEAAX$$QEAV?$allocator@U_Container_proxy@std@@@1@@Z
	??$_Allocate@$0BA@U_Default_allocate_traits@std@@$0A@@std@@YAPEAX_K@Z
	??$_Allocate_manually_vector_aligned@U_Default_allocate_traits@std@@@std@@YAPEAX_K@Z
	??$_Assign_counted_range@PEBV?$Matrix@N$0?0$00$0A@$0?0$00@Eigen@@@?$vector@V?$Matrix@N$0?0$00$0A@$0?0$00@Eigen@@V?$allocator@V?$Matrix@N$0?0$00$0A@$0?0$00@Eigen@@@std@@@std@@AEAAXPEBV?$Matrix@N$0?0$00$0A@$0?0$00@Eigen@@_K@Z
	??$_Construct_in_place@U_Container_proxy@std@@PEAU_Container_base12@2@@std@@YAXAEAU_Container_proxy@0@$$QEAPEAU_Container_base12@0@@Z
	??$_Convert_size@_K_K@std@@YA_K_K@Z
	??$_Copy_n_unchecked4@PEBV?$Matrix@N$0?0$00$0A@$0?0$00@Eigen@@_KPEAV12@@std@@YAPEAV?$Matrix@N$0?0$00$0A@$0?0$00@Eigen@@PEBV12@_KPEAV12@@Z
	??$_Deallocate@$0BA@$0A@@std@@YAXPEAX_K@Z
	??$_Deallocate_plain@V?$allocator@U_Container_proxy@std@@@std@@@std@@YAXAEAV?$allocator@U_Container_proxy@std@@@0@QEAU_Container_proxy@0@@Z
	??$_Delete_plain_internal@V?$allocator@U_Container_proxy@std@@@std@@@std@@YAXAEAV?$allocator@U_Container_proxy@std@@@0@QEAU_Container_proxy@0@@Z
	??$_Destroy_range@V?$allocator@V?$Matrix@N$0?0$00$0A@$0?0$00@Eigen@@@std@@@std@@YAXPEAV?$Matrix@N$0?0$00$0A@$0?0$00@Eigen@@QEAV12@AEAV?$allocator@V?$Matrix@N$0?0$00$0A@$0?0$00@Eigen@@@0@@Z
	??$_Emplace_back@AEBV?$Matrix@N$0?0$00$0A@$0?0$00@Eigen@@@?$_Uninitialized_backout_al@V?$allocator@V?$Matrix@N$0?0$00$0A@$0?0$00@Eigen@@@std@@@std@@QEAAXAEBV?$Matrix@N$0?0$00$0A@$0?0$00@Eigen@@@Z
	??$_Emplace_back@V?$Matrix@N$0?0$00$0A@$0?0$00@Eigen@@@?$_Uninitialized_backout_al@V?$allocator@V?$Matrix@N$0?0$00$0A@$0?0$00@Eigen@@@std@@@std@@QEAAX$$QEAV?$Matrix@N$0?0$00$0A@$0?0$00@Eigen@@@Z
	??$_Emplace_back_with_unused_capacity@AEBV?$Matrix@N$0?0$00$0A@$0?0$00@Eigen@@@?$vector@V?$Matrix@N$0?0$00$0A@$0?0$00@Eigen@@V?$allocator@V?$Matrix@N$0?0$00$0A@$0?0$00@Eigen@@@std@@@std@@AEAAAEAV?$Matrix@N$0?0$00$0A@$0?0$00@Eigen@@AEBV23@@Z
	??$_Emplace_one_at_back@AEBV?$Matrix@N$0?0$00$0A@$0?0$00@Eigen@@@?$vector@V?$Matrix@N$0?0$00$0A@$0?0$00@Eigen@@V?$allocator@V?$Matrix@N$0?0$00$0A@$0?0$00@Eigen@@@std@@@std@@AEAAAEAV?$Matrix@N$0?0$00$0A@$0?0$00@Eigen@@AEBV23@@Z
	??$_Emplace_reallocate@AEBV?$Matrix@N$0?0$00$0A@$0?0$00@Eigen@@@?$vector@V?$Matrix@N$0?0$00$0A@$0?0$00@Eigen@@V?$allocator@V?$Matrix@N$0?0$00$0A@$0?0$00@Eigen@@@std@@@std@@AEAAPEAV?$Matrix@N$0?0$00$0A@$0?0$00@Eigen@@QEAV23@AEBV23@@Z
	??$_Get_size_of_n@$0BA@@std@@YA_K_K@Z
	??$_Get_unwrapped@AEBQEAV?$Matrix@N$0?0$00$0A@$0?0$00@Eigen@@@std@@YA?A_TAEBQEAV?$Matrix@N$0?0$00$0A@$0?0$00@Eigen@@@Z
	??$_Get_unwrapped@PEBV?$Matrix@N$0?0$00$0A@$0?0$00@Eigen@@@std@@YA?A_T$$QEAPEBV?$Matrix@N$0?0$00$0A@$0?0$00@Eigen@@@Z
	??$_Move_unchecked@PEAV?$Matrix@N$0?0$00$0A@$0?0$00@Eigen@@PEAV12@@std@@YAPEAV?$Matrix@N$0?0$00$0A@$0?0$00@Eigen@@PEAV12@00@Z
	??$_Unfancy@U_Container_proxy@std@@@std@@YAPEAU_Container_proxy@0@PEAU10@@Z
	??$_Unfancy@V?$Matrix@N$0?0$00$0A@$0?0$00@Eigen@@@std@@YAPEAV?$Matrix@N$0?0$00$0A@$0?0$00@Eigen@@PEAV12@@Z
	??$_Uninitialized_copy_n@PEBV?$Matrix@N$0?0$00$0A@$0?0$00@Eigen@@V?$allocator@V?$Matrix@N$0?0$00$0A@$0?0$00@Eigen@@@std@@@std@@YAPEAV?$Matrix@N$0?0$00$0A@$0?0$00@Eigen@@PEBV12@_KPEAV12@AEAV?$allocator@V?$Matrix@N$0?0$00$0A@$0?0$00@Eigen@@@0@@Z
	??$_Uninitialized_move@PEAV?$Matrix@N$0?0$00$0A@$0?0$00@Eigen@@V?$allocator@V?$Matrix@N$0?0$00$0A@$0?0$00@Eigen@@@std@@@std@@YAPEAV?$Matrix@N$0?0$00$0A@$0?0$00@Eigen@@QEAV12@0PEAV12@AEAV?$allocator@V?$Matrix@N$0?0$00$0A@$0?0$00@Eigen@@@0@@Z
	??$_Voidify_iter@PEAU_Container_proxy@std@@@std@@YAPEAXPEAU_Container_proxy@0@@Z
	??$_Voidify_iter@PEAV?$Matrix@N$0?0$00$0A@$0?0$00@Eigen@@@std@@YAPEAXPEAV?$Matrix@N$0?0$00$0A@$0?0$00@Eigen@@@Z
	??$_init2@_J_J@?$PlainObjectBase@V?$Matrix@N$0?0$00$0A@$0?0$00@Eigen@@@Eigen@@IEAAX_J0PEA_J@Z
	??$_set@V?$Matrix@N$0?0$00$0A@$0?0$00@Eigen@@@?$PlainObjectBase@V?$Matrix@N$0?0$00$0A@$0?0$00@Eigen@@@Eigen@@IEAAAEAV?$Matrix@N$0?0$00$0A@$0?0$00@1@AEBV?$DenseBase@V?$Matrix@N$0?0$00$0A@$0?0$00@Eigen@@@1@@Z
	??$addressof@U_Container_proxy@std@@@std@@YAPEAU_Container_proxy@0@AEAU10@@Z
	??$addressof@V?$_Vector_val@U?$_Simple_types@V?$Matrix@N$0?0$00$0A@$0?0$00@Eigen@@@std@@@std@@@std@@YAPEAV?$_Vector_val@U?$_Simple_types@V?$Matrix@N$0?0$00$0A@$0?0$00@Eigen@@@std@@@0@AEAV10@@Z
	??$assignPacket@$0BA@$0A@U__m128d@@@?$generic_dense_assignment_kernel@U?$evaluator@V?$Block@V?$Matrix@N$0?0$00$0A@$0?0$00@Eigen@@$0?0$0?0$0A@@Eigen@@@internal@Eigen@@U123@U?$assign_op@NN@23@$0A@@internal@Eigen@@QEAAX_J0@Z
	??$assignPacket@$0BA@$0A@U__m128d@@@?$generic_dense_assignment_kernel@U?$evaluator@V?$Block@V?$Matrix@N$0?0$00$0A@$0?0$00@Eigen@@$0?0$0?0$0A@@Eigen@@@internal@Eigen@@U?$evaluator@V?$Matrix@N$0?0$00$0A@$0?0$00@Eigen@@@23@U?$assign_op@NN@23@$0A@@internal@Eigen@@QEAAX_J0@Z
	??$assignPacket@$0BA@$0BA@U__m128d@@@?$generic_dense_assignment_kernel@U?$evaluator@V?$Matrix@N$0?0$00$0A@$0?0$00@Eigen@@@internal@Eigen@@U123@U?$assign_op@NN@23@$0A@@internal@Eigen@@QEAAX_J@Z
	??$assignPacket@$0BA@U__m128d@@@?$assign_op@NN@internal@Eigen@@QEBAXPEANAEBU__m128d@@@Z
	??$assignPacketByOuterInner@$0BA@$0A@U__m128d@@@?$generic_dense_assignment_kernel@U?$evaluator@V?$Block@V?$Matrix@N$0?0$00$0A@$0?0$00@Eigen@@$0?0$0?0$0A@@Eigen@@@internal@Eigen@@U123@U?$assign_op@NN@23@$0A@@internal@Eigen@@QEAAX_J0@Z
	??$assignPacketByOuterInner@$0BA@$0A@U__m128d@@@?$generic_dense_assignment_kernel@U?$evaluator@V?$Block@V?$Matrix@N$0?0$00$0A@$0?0$00@Eigen@@$0?0$0?0$0A@@Eigen@@@internal@Eigen@@U?$evaluator@V?$Matrix@N$0?0$00$0A@$0?0$00@Eigen@@@23@U?$assign_op@NN@23@$0A@@internal@Eigen@@QEAAX_J0@Z
	??$call_assignment@V?$Block@V?$Matrix@N$0?0$00$0A@$0?0$00@Eigen@@$0?0$0?0$0A@@Eigen@@V12@@internal@Eigen@@YAXAEAV?$Block@V?$Matrix@N$0?0$00$0A@$0?0$00@Eigen@@$0?0$0?0$0A@@1@AEBV21@@Z
	??$call_assignment@V?$Block@V?$Matrix@N$0?0$00$0A@$0?0$00@Eigen@@$0?0$0?0$0A@@Eigen@@V12@U?$assign_op@NN@internal@2@@internal@Eigen@@YAXAEAV?$Block@V?$Matrix@N$0?0$00$0A@$0?0$00@Eigen@@$0?0$0?0$0A@@1@AEBV21@AEBU?$assign_op@NN@01@PEAX@Z
	??$call_assignment@V?$Block@V?$Matrix@N$0?0$00$0A@$0?0$00@Eigen@@$0?0$0?0$0A@@Eigen@@V?$Matrix@N$0?0$00$0A@$0?0$00@2@@internal@Eigen@@YAXAEAV?$Block@V?$Matrix@N$0?0$00$0A@$0?0$00@Eigen@@$0?0$0?0$0A@@1@AEBV?$Matrix@N$0?0$00$0A@$0?0$00@1@@Z
	??$call_assignment@V?$Block@V?$Matrix@N$0?0$00$0A@$0?0$00@Eigen@@$0?0$0?0$0A@@Eigen@@V?$Matrix@N$0?0$00$0A@$0?0$00@2@U?$assign_op@NN@internal@2@@internal@Eigen@@YAXAEAV?$Block@V?$Matrix@N$0?0$00$0A@$0?0$00@Eigen@@$0?0$0?0$0A@@1@AEBV?$Matrix@N$0?0$00$0A@$0?0$00@1@AEBU?$assign_op@NN@01@PEAX@Z
	??$call_assignment@V?$Matrix@N$0?0$00$0A@$0?0$00@Eigen@@V12@@internal@Eigen@@YAXAEAV?$Matrix@N$0?0$00$0A@$0?0$00@1@AEBV21@@Z
	??$call_assignment@V?$Matrix@N$0?0$00$0A@$0?0$00@Eigen@@V12@U?$assign_op@NN@internal@2@@internal@Eigen@@YAXAEAV?$Matrix@N$0?0$00$0A@$0?0$00@1@AEBV21@AEBU?$assign_op@NN@01@PEAX@Z
	??$call_assignment_no_alias@V?$Block@V?$Matrix@N$0?0$00$0A@$0?0$00@Eigen@@$0?0$0?0$0A@@Eigen@@V12@U?$assign_op@NN@internal@2@@internal@Eigen@@YAXAEAV?$Block@V?$Matrix@N$0?0$00$0A@$0?0$00@Eigen@@$0?0$0?0$0A@@1@AEBV21@AEBU?$assign_op@NN@01@@Z
	??$call_assignment_no_alias@V?$Block@V?$Matrix@N$0?0$00$0A@$0?0$00@Eigen@@$0?0$0?0$0A@@Eigen@@V?$Matrix@N$0?0$00$0A@$0?0$00@2@U?$assign_op@NN@internal@2@@internal@Eigen@@YAXAEAV?$Block@V?$Matrix@N$0?0$00$0A@$0?0$00@Eigen@@$0?0$0?0$0A@@1@AEBV?$Matrix@N$0?0$00$0A@$0?0$00@1@AEBU?$assign_op@NN@01@@Z
	??$call_assignment_no_alias@V?$Matrix@N$0?0$00$0A@$0?0$00@Eigen@@V12@U?$assign_op@NN@internal@2@@internal@Eigen@@YAXAEAV?$Matrix@N$0?0$00$0A@$0?0$00@1@AEBV21@AEBU?$assign_op@NN@01@@Z
	??$call_dense_assignment_loop@V?$Block@V?$Matrix@N$0?0$00$0A@$0?0$00@Eigen@@$0?0$0?0$0A@@Eigen@@V12@U?$assign_op@NN@internal@2@@internal@Eigen@@YAXAEAV?$Block@V?$Matrix@N$0?0$00$0A@$0?0$00@Eigen@@$0?0$0?0$0A@@1@AEBV21@AEBU?$assign_op@NN@01@@Z
	??$call_dense_assignment_loop@V?$Block@V?$Matrix@N$0?0$00$0A@$0?0$00@Eigen@@$0?0$0?0$0A@@Eigen@@V?$Matrix@N$0?0$00$0A@$0?0$00@2@U?$assign_op@NN@internal@2@@internal@Eigen@@YAXAEAV?$Block@V?$Matrix@N$0?0$00$0A@$0?0$00@Eigen@@$0?0$0?0$0A@@1@AEBV?$Matrix@N$0?0$00$0A@$0?0$00@1@AEBU?$assign_op@NN@01@@Z
	??$call_dense_assignment_loop@V?$Matrix@N$0?0$00$0A@$0?0$00@Eigen@@V12@U?$assign_op@NN@internal@2@@internal@Eigen@@YAXAEAV?$Matrix@N$0?0$00$0A@$0?0$00@1@AEBV21@AEBU?$assign_op@NN@01@@Z
	??$checkSanity@V?$Block@V?$Matrix@N$0?0$00$0A@$0?0$00@Eigen@@$0?0$0?0$0A@@Eigen@@@?$MapBase@V?$Block@V?$Matrix@N$0?0$00$0A@$0?0$00@Eigen@@$0?0$0?0$0A@@Eigen@@$0A@@Eigen@@IEBAXPEAX@Z
	??$check_for_aliasing@V?$Block@V?$Matrix@N$0?0$00$0A@$0?0$00@Eigen@@$0?0$0?0$0A@@Eigen@@V12@@internal@Eigen@@YAXAEBV?$Block@V?$Matrix@N$0?0$00$0A@$0?0$00@Eigen@@$0?0$0?0$0A@@1@0@Z
	??$check_for_aliasing@V?$Block@V?$Matrix@N$0?0$00$0A@$0?0$00@Eigen@@$0?0$0?0$0A@@Eigen@@V?$Matrix@N$0?0$00$0A@$0?0$00@2@@internal@Eigen@@YAXAEBV?$Block@V?$Matrix@N$0?0$00$0A@$0?0$00@Eigen@@$0?0$0?0$0A@@1@AEBV?$Matrix@N$0?0$00$0A@$0?0$00@1@@Z
	??$check_for_aliasing@V?$Matrix@N$0?0$00$0A@$0?0$00@Eigen@@V12@@internal@Eigen@@YAXAEBV?$Matrix@N$0?0$00$0A@$0?0$00@1@0@Z
	??$check_size_for_overflow@N@internal@Eigen@@YAX_K@Z
	??$conditional_aligned_delete_auto@N$00@internal@Eigen@@YAXPEAN_K@Z
	??$conditional_aligned_free@$00@internal@Eigen@@YAXPEAX@Z
	??$conditional_aligned_free@$0A@@internal@Eigen@@YAXPEAX@Z
	??$conditional_aligned_malloc@$00@internal@Eigen@@YAPEAX_K@Z
	??$conditional_aligned_new_auto@N$00@internal@Eigen@@YAPEAN_K@Z
	??$conditional_aligned_realloc@$00@internal@Eigen@@YAPEAXPEAX_K1@Z
	??$conditional_aligned_realloc_new_auto@N$00@internal@Eigen@@YAPEANPEAN_K1@Z
	??$construct@V?$Matrix@N$0?0$00$0A@$0?0$00@Eigen@@AEBV12@@?$_Default_allocator_traits@V?$allocator@V?$Matrix@N$0?0$00$0A@$0?0$00@Eigen@@@std@@@std@@SAXAEAV?$allocator@V?$Matrix@N$0?0$00$0A@$0?0$00@Eigen@@@1@QEAV?$Matrix@N$0?0$00$0A@$0?0$00@Eigen@@AEBV34@@Z
	??$construct@V?$Matrix@N$0?0$00$0A@$0?0$00@Eigen@@V12@@?$_Default_allocator_traits@V?$allocator@V?$Matrix@N$0?0$00$0A@$0?0$00@Eigen@@@std@@@std@@SAXAEAV?$allocator@V?$Matrix@N$0?0$00$0A@$0?0$00@Eigen@@@1@QEAV?$Matrix@N$0?0$00$0A@$0?0$00@Eigen@@$$QEAV34@@Z
	??$construct_elements_of_array@N@internal@Eigen@@YAPEANPEAN_K@Z
	??$destroy@V?$Matrix@N$0?0$00$0A@$0?0$00@Eigen@@@?$_Default_allocator_traits@V?$allocator@V?$Matrix@N$0?0$00$0A@$0?0$00@Eigen@@@std@@@std@@SAXAEAV?$allocator@V?$Matrix@N$0?0$00$0A@$0?0$00@Eigen@@@1@QEAV?$Matrix@N$0?0$00$0A@$0?0$00@Eigen@@@Z
	??$destruct_elements_of_array@N@internal@Eigen@@YAXPEAN_K@Z
	??$endl@DU?$char_traits@D@std@@@std@@YAAEAV?$basic_ostream@DU?$char_traits@D@std@@@0@AEAV10@@Z
	??$exchange@PEAU_Container_proxy@std@@$$T@std@@YAPEAU_Container_proxy@0@AEAPEAU10@$$QEA$$T@Z
	??$exchange@PEAU_Iterator_base12@std@@$$T@std@@YAPEAU_Iterator_base12@0@AEAPEAU10@$$QEA$$T@Z
	??$first_aligned@$0BA@N_J@internal@Eigen@@YA_JPEBN_J@Z
	??$forward@AEBV?$Matrix@N$0?0$00$0A@$0?0$00@Eigen@@@std@@YAAEBV?$Matrix@N$0?0$00$0A@$0?0$00@Eigen@@AEBV12@@Z
	??$forward@PEAU_Container_base12@std@@@std@@YA$$QEAPEAU_Container_base12@0@AEAPEAU10@@Z
	??$forward@V?$Matrix@N$0?0$00$0A@$0?0$00@Eigen@@@std@@YA$$QEAV?$Matrix@N$0?0$00$0A@$0?0$00@Eigen@@AEAV12@@Z
	??$ignore_unused_variable@_K@internal@Eigen@@YAXAEB_K@Z
	??$min@_J@std@@YAAEB_JAEB_J0@Z
	??$min@_K@std@@YAAEB_KAEB_K0@Z
	??$mini@_J@numext@Eigen@@YA_JAEB_J0@Z
	??$move@AEAPEAN@std@@YA$$QEAPEANAEAPEAN@Z
	??$move@AEAPEBV?$Matrix@N$0?0$00$0A@$0?0$00@Eigen@@@std@@YA$$QEAPEBV?$Matrix@N$0?0$00$0A@$0?0$00@Eigen@@AEAPEBV12@@Z
	??$move@AEAV?$DenseStorage@N$0?0$0?0$00$0A@@Eigen@@@std@@YA$$QEAV?$DenseStorage@N$0?0$0?0$00$0A@@Eigen@@AEAV12@@Z
	??$move@AEAV?$Matrix@N$0?0$00$0A@$0?0$00@Eigen@@@std@@YA$$QEAV?$Matrix@N$0?0$00$0A@$0?0$00@Eigen@@AEAV12@@Z
	??$move@AEA_J@std@@YA$$QEA_JAEA_J@Z
	??$packet@$0A@U__m128d@@@?$evaluator@V?$PlainObjectBase@V?$Matrix@N$0?0$00$0A@$0?0$00@Eigen@@@Eigen@@@internal@Eigen@@QEBA?AU__m128d@@_J0@Z
	??$packet@$0A@U__m128d@@@?$mapbase_evaluator@V?$Block@V?$Matrix@N$0?0$00$0A@$0?0$00@Eigen@@$0?0$0?0$0A@@Eigen@@V?$Matrix@N$0?0$0?0$0A@$0?0$00@2@@internal@Eigen@@QEBA?AU__m128d@@_J0@Z
	??$packet@$0BA@U__m128d@@@?$evaluator@V?$PlainObjectBase@V?$Matrix@N$0?0$00$0A@$0?0$00@Eigen@@@Eigen@@@internal@Eigen@@QEBA?AU__m128d@@_J@Z
	??$pload@U__m128d@@@internal@Eigen@@YA?AU__m128d@@PEBN@Z
	??$ploadt@U__m128d@@$0A@@internal@Eigen@@YA?AU__m128d@@PEBN@Z
	??$ploadt@U__m128d@@$0BA@@internal@Eigen@@YA?AU__m128d@@PEBN@Z
	??$ploadu@U__m128d@@@internal@Eigen@@YA?AU__m128d@@PEBN@Z
	??$pstore@NU__m128d@@@internal@Eigen@@YAXPEANAEBU__m128d@@@Z
	??$pstoret@NU__m128d@@$0BA@@internal@Eigen@@YAXPEANAEBU__m128d@@@Z
	??$pstoreu@NU__m128d@@@internal@Eigen@@YAXPEANAEBU__m128d@@@Z
	??$resize_if_allowed@V?$Block@V?$Matrix@N$0?0$00$0A@$0?0$00@Eigen@@$0?0$0?0$0A@@Eigen@@V12@NN@internal@Eigen@@YAXAEAV?$Block@V?$Matrix@N$0?0$00$0A@$0?0$00@Eigen@@$0?0$0?0$0A@@1@AEBV21@AEBU?$assign_op@NN@01@@Z
	??$resize_if_allowed@V?$Block@V?$Matrix@N$0?0$00$0A@$0?0$00@Eigen@@$0?0$0?0$0A@@Eigen@@V?$Matrix@N$0?0$00$0A@$0?0$00@2@NN@internal@Eigen@@YAXAEAV?$Block@V?$Matrix@N$0?0$00$0A@$0?0$00@Eigen@@$0?0$0?0$0A@@1@AEBV?$Matrix@N$0?0$00$0A@$0?0$00@1@AEBU?$assign_op@NN@01@@Z
	??$resize_if_allowed@V?$Matrix@N$0?0$00$0A@$0?0$00@Eigen@@V12@NN@internal@Eigen@@YAXAEAV?$Matrix@N$0?0$00$0A@$0?0$00@1@AEBV21@AEBU?$assign_op@NN@01@@Z
	??$run@V?$generic_dense_assignment_kernel@U?$evaluator@V?$Matrix@N$0?0$00$0A@$0?0$00@Eigen@@@internal@Eigen@@U123@U?$assign_op@NN@23@$0A@@internal@Eigen@@@?$unaligned_dense_assignment_loop@$00@internal@Eigen@@SAXAEAV?$generic_dense_assignment_kernel@U?$evaluator@V?$Matrix@N$0?0$00$0A@$0?0$00@Eigen@@@internal@Eigen@@U123@U?$assign_op@NN@23@$0A@@12@_J1@Z
	??$run@V?$generic_dense_assignment_kernel@U?$evaluator@V?$Matrix@N$0?0$00$0A@$0?0$00@Eigen@@@internal@Eigen@@U123@U?$assign_op@NN@23@$0A@@internal@Eigen@@@?$unaligned_dense_assignment_loop@$0A@@internal@Eigen@@SAXAEAV?$generic_dense_assignment_kernel@U?$evaluator@V?$Matrix@N$0?0$00$0A@$0?0$00@Eigen@@@internal@Eigen@@U123@U?$assign_op@NN@23@$0A@@12@_J1@Z
	??$run@_J@?$check_rows_cols_for_overflow@$0?0@internal@Eigen@@SAX_J0@Z
	??$smart_copy@N@internal@Eigen@@YAXPEBN0PEAN@Z
	??$swap@PEAN$0A@@std@@YAXAEAPEAN0@Z
	??$swap@V?$Matrix@N$0?0$00$0A@$0?0$00@Eigen@@@?$PlainObjectBase@V?$Matrix@N$0?0$00$0A@$0?0$00@Eigen@@@Eigen@@QEAAXAEAV?$DenseBase@V?$Matrix@N$0?0$00$0A@$0?0$00@Eigen@@@1@@Z
	??$swap@_J$0A@@std@@YAXAEA_J0@Z
	??0?$Block@V?$Matrix@N$0?0$00$0A@$0?0$00@Eigen@@$0?0$0?0$0A@@Eigen@@QEAA@AEAV?$Matrix@N$0?0$00$0A@$0?0$00@1@_J111@Z
	??0?$BlockImpl@V?$Matrix@N$0?0$00$0A@$0?0$00@Eigen@@$0?0$0?0$0A@UDense@2@@Eigen@@QEAA@AEAV?$Matrix@N$0?0$00$0A@$0?0$00@1@_J111@Z
	??0?$BlockImpl_dense@V?$Matrix@N$0?0$00$0A@$0?0$00@Eigen@@$0?0$0?0$0A@$00@internal@Eigen@@QEAA@AEAV?$Matrix@N$0?0$00$0A@$0?0$00@2@_J111@Z
	??0?$CommaInitializer@V?$Matrix@N$0?0$00$0A@$0?0$00@Eigen@@@Eigen@@QEAA@AEAV?$Matrix@N$0?0$00$0A@$0?0$00@1@AEBN@Z
	??0?$DenseBase@V?$Block@V?$Matrix@N$0?0$00$0A@$0?0$00@Eigen@@$0?0$0?0$0A@@Eigen@@@Eigen@@IEAA@XZ
	??0?$DenseBase@V?$Matrix@N$0?0$00$0A@$0?0$00@Eigen@@@Eigen@@IEAA@XZ
	??0?$DenseStorage@N$0?0$0?0$00$0A@@Eigen@@QEAA@$$QEAV01@@Z
	??0?$DenseStorage@N$0?0$0?0$00$0A@@Eigen@@QEAA@AEBV01@@Z
	??0?$DenseStorage@N$0?0$0?0$00$0A@@Eigen@@QEAA@XZ
	??0?$MapBase@V?$Block@V?$Matrix@N$0?0$00$0A@$0?0$00@Eigen@@$0?0$0?0$0A@@Eigen@@$00@Eigen@@QEAA@PEAN_J1@Z
	??0?$MapBase@V?$Block@V?$Matrix@N$0?0$00$0A@$0?0$00@Eigen@@$0?0$0?0$0A@@Eigen@@$0A@@Eigen@@QEAA@PEAN_J1@Z
	??0?$Matrix@N$0?0$00$0A@$0?0$00@Eigen@@QEAA@$$QEAV01@@Z
	??0?$Matrix@N$0?0$00$0A@$0?0$00@Eigen@@QEAA@AEBV01@@Z
	??0?$Matrix@N$0?0$00$0A@$0?0$00@Eigen@@QEAA@XZ
	??0?$MatrixBase@V?$Block@V?$Matrix@N$0?0$00$0A@$0?0$00@Eigen@@$0?0$0?0$0A@@Eigen@@@Eigen@@IEAA@XZ
	??0?$MatrixBase@V?$Matrix@N$0?0$00$0A@$0?0$00@Eigen@@@Eigen@@IEAA@XZ
	??0?$PlainObjectBase@V?$Matrix@N$0?0$00$0A@$0?0$00@Eigen@@@Eigen@@IEAA@$$QEAV01@@Z
	??0?$PlainObjectBase@V?$Matrix@N$0?0$00$0A@$0?0$00@Eigen@@@Eigen@@IEAA@AEBV01@@Z
	??0?$PlainObjectBase@V?$Matrix@N$0?0$00$0A@$0?0$00@Eigen@@@Eigen@@IEAA@XZ
	??0?$_Uninitialized_backout_al@V?$allocator@V?$Matrix@N$0?0$00$0A@$0?0$00@Eigen@@@std@@@std@@QEAA@PEAV?$Matrix@N$0?0$00$0A@$0?0$00@Eigen@@AEAV?$allocator@V?$Matrix@N$0?0$00$0A@$0?0$00@Eigen@@@1@@Z
	??0?$_Vector_const_iterator@V?$_Vector_val@U?$_Simple_types@V?$Matrix@N$0?0$00$0A@$0?0$00@Eigen@@@std@@@std@@@std@@QEAA@$$QEAV01@@Z
	??0?$_Vector_const_iterator@V?$_Vector_val@U?$_Simple_types@V?$Matrix@N$0?0$00$0A@$0?0$00@Eigen@@@std@@@std@@@std@@QEAA@AEBV01@@Z
	??0?$_Vector_const_iterator@V?$_Vector_val@U?$_Simple_types@V?$Matrix@N$0?0$00$0A@$0?0$00@Eigen@@@std@@@std@@@std@@QEAA@PEAV?$Matrix@N$0?0$00$0A@$0?0$00@Eigen@@PEBU_Container_base12@1@@Z
	??0?$_Vector_iterator@V?$_Vector_val@U?$_Simple_types@V?$Matrix@N$0?0$00$0A@$0?0$00@Eigen@@@std@@@std@@@std@@QEAA@$$QEAV01@@Z
	??0?$_Vector_iterator@V?$_Vector_val@U?$_Simple_types@V?$Matrix@N$0?0$00$0A@$0?0$00@Eigen@@@std@@@std@@@std@@QEAA@AEBV01@@Z
	??0?$_Vector_iterator@V?$_Vector_val@U?$_Simple_types@V?$Matrix@N$0?0$00$0A@$0?0$00@Eigen@@@std@@@std@@@std@@QEAA@PEAV?$Matrix@N$0?0$00$0A@$0?0$00@Eigen@@PEBU_Container_base12@1@@Z
	??0?$_Vector_val@U?$_Simple_types@V?$Matrix@N$0?0$00$0A@$0?0$00@Eigen@@@std@@@std@@QEAA@XZ
	??0?$allocator@V?$Matrix@N$0?0$00$0A@$0?0$00@Eigen@@@std@@QEAA@XZ
	??0?$block_evaluator@V?$Matrix@N$0?0$00$0A@$0?0$00@Eigen@@$0?0$0?0$0A@$00@internal@Eigen@@QEAA@AEBV?$Block@V?$Matrix@N$0?0$00$0A@$0?0$00@Eigen@@$0?0$0?0$0A@@2@@Z
	??0?$evaluator@V?$Block@V?$Matrix@N$0?0$00$0A@$0?0$00@Eigen@@$0?0$0?0$0A@@Eigen@@@internal@Eigen@@QEAA@AEBV?$Block@V?$Matrix@N$0?0$00$0A@$0?0$00@Eigen@@$0?0$0?0$0A@@2@@Z
	??0?$evaluator@V?$Matrix@N$0?0$00$0A@$0?0$00@Eigen@@@internal@Eigen@@QEAA@AEBV?$Matrix@N$0?0$00$0A@$0?0$00@2@@Z
	??0?$evaluator@V?$PlainObjectBase@V?$Matrix@N$0?0$00$0A@$0?0$00@Eigen@@@Eigen@@@internal@Eigen@@QEAA@AEBV?$PlainObjectBase@V?$Matrix@N$0?0$00$0A@$0?0$00@Eigen@@@2@@Z
	??0?$evaluator_base@V?$Block@V?$Matrix@N$0?0$00$0A@$0?0$00@Eigen@@$0?0$0?0$0A@@Eigen@@@internal@Eigen@@QEAA@XZ
	??0?$evaluator_base@V?$Matrix@N$0?0$00$0A@$0?0$00@Eigen@@@internal@Eigen@@QEAA@XZ
	??0?$generic_dense_assignment_kernel@U?$evaluator@V?$Block@V?$Matrix@N$0?0$00$0A@$0?0$00@Eigen@@$0?0$0?0$0A@@Eigen@@@internal@Eigen@@U123@U?$assign_op@NN@23@$0A@@internal@Eigen@@QEAA@AEAU?$evaluator@V?$Block@V?$Matrix@N$0?0$00$0A@$0?0$00@Eigen@@$0?0$0?0$0A@@Eigen@@@12@AEBU312@AEBU?$assign_op@NN@12@AEAV?$Block@V?$Matrix@N$0?0$00$0A@$0?0$00@Eigen@@$0?0$0?0$0A@@2@@Z
	??0?$generic_dense_assignment_kernel@U?$evaluator@V?$Block@V?$Matrix@N$0?0$00$0A@$0?0$00@Eigen@@$0?0$0?0$0A@@Eigen@@@internal@Eigen@@U?$evaluator@V?$Matrix@N$0?0$00$0A@$0?0$00@Eigen@@@23@U?$assign_op@NN@23@$0A@@internal@Eigen@@QEAA@AEAU?$evaluator@V?$Block@V?$Matrix@N$0?0$00$0A@$0?0$00@Eigen@@$0?0$0?0$0A@@Eigen@@@12@AEBU?$evaluator@V?$Matrix@N$0?0$00$0A@$0?0$00@Eigen@@@12@AEBU?$assign_op@NN@12@AEAV?$Block@V?$Matrix@N$0?0$00$0A@$0?0$00@Eigen@@$0?0$0?0$0A@@2@@Z
	??0?$generic_dense_assignment_kernel@U?$evaluator@V?$Matrix@N$0?0$00$0A@$0?0$00@Eigen@@@internal@Eigen@@U123@U?$assign_op@NN@23@$0A@@internal@Eigen@@QEAA@AEAU?$evaluator@V?$Matrix@N$0?0$00$0A@$0?0$00@Eigen@@@12@AEBU312@AEBU?$assign_op@NN@12@AEAV?$Matrix@N$0?0$00$0A@$0?0$00@2@@Z
	??0?$initializer_list@V?$Matrix@N$0?0$00$0A@$0?0$00@Eigen@@@std@@QEAA@XZ
	??0?$mapbase_evaluator@V?$Block@V?$Matrix@N$0?0$00$0A@$0?0$00@Eigen@@$0?0$0?0$0A@@Eigen@@V?$Matrix@N$0?0$0?0$0A@$0?0$00@2@@internal@Eigen@@QEAA@AEBV?$Block@V?$Matrix@N$0?0$00$0A@$0?0$00@Eigen@@$0?0$0?0$0A@@2@@Z
	??0?$variable_if_dynamic@_J$00@internal@Eigen@@QEAA@_J@Z
	??0?$variable_if_dynamic@_J$0?0@internal@Eigen@@QEAA@_J@Z
	??0?$variable_if_dynamic@_J$0A@@internal@Eigen@@QEAA@_J@Z
	??0?$vector@V?$Matrix@N$0?0$00$0A@$0?0$00@Eigen@@V?$allocator@V?$Matrix@N$0?0$00$0A@$0?0$00@Eigen@@@std@@@std@@QEAA@XZ
	??0TimeSeries@@QEAA@NV?$Matrix@N$0?0$00$0A@$0?0$00@Eigen@@@Z
	??0TimeSeries@@QEAA@XZ
	??0TimeSeries@@QEAA@_K@Z
	??0_Container_base12@std@@QEAA@XZ
	??0_Container_proxy@std@@QEAA@PEAU_Container_base12@1@@Z
	??0_Iterator_base12@std@@QEAA@AEBU01@@Z
	??0_Iterator_base12@std@@QEAA@XZ
	??0_Sentry_base@?$basic_ostream@DU?$char_traits@D@std@@@std@@QEAA@AEAV12@@Z
	??0bad_alloc@std@@AEAA@QEBD@Z
	??0bad_alloc@std@@QEAA@AEBV01@@Z
	??0bad_alloc@std@@QEAA@XZ
	??0bad_array_new_length@std@@QEAA@AEBV01@@Z
	??0bad_array_new_length@std@@QEAA@XZ
	??0exception@std@@QEAA@AEBV01@@Z
	??0exception@std@@QEAA@QEBDH@Z
	??0noncopyable@internal@Eigen@@IEAA@XZ
	??0sentry@?$basic_ostream@DU?$char_traits@D@std@@@std@@QEAA@AEAV12@@Z
	??1?$CommaInitializer@V?$Matrix@N$0?0$00$0A@$0?0$00@Eigen@@@Eigen@@QEAA@XZ
	??1?$DenseStorage@N$0?0$0?0$00$0A@@Eigen@@QEAA@XZ
	??1?$Matrix@N$0?0$00$0A@$0?0$00@Eigen@@QEAA@XZ
	??1?$PlainObjectBase@V?$Matrix@N$0?0$00$0A@$0?0$00@Eigen@@@Eigen@@QEAA@XZ
	??1?$_Uninitialized_backout_al@V?$allocator@V?$Matrix@N$0?0$00$0A@$0?0$00@Eigen@@@std@@@std@@QEAA@XZ
	??1?$_Vector_const_iterator@V?$_Vector_val@U?$_Simple_types@V?$Matrix@N$0?0$00$0A@$0?0$00@Eigen@@@std@@@std@@@std@@QEAA@XZ
	??1?$_Vector_iterator@V?$_Vector_val@U?$_Simple_types@V?$Matrix@N$0?0$00$0A@$0?0$00@Eigen@@@std@@@std@@@std@@QEAA@XZ
	??1?$block_evaluator@V?$Matrix@N$0?0$00$0A@$0?0$00@Eigen@@$0?0$0?0$0A@$00@internal@Eigen@@QEAA@XZ
	??1?$evaluator@V?$Block@V?$Matrix@N$0?0$00$0A@$0?0$00@Eigen@@$0?0$0?0$0A@@Eigen@@@internal@Eigen@@QEAA@XZ
	??1?$evaluator@V?$Matrix@N$0?0$00$0A@$0?0$00@Eigen@@@internal@Eigen@@QEAA@XZ
	??1?$evaluator@V?$PlainObjectBase@V?$Matrix@N$0?0$00$0A@$0?0$00@Eigen@@@Eigen@@@internal@Eigen@@QEAA@XZ
	??1?$evaluator_base@V?$Block@V?$Matrix@N$0?0$00$0A@$0?0$00@Eigen@@$0?0$0?0$0A@@Eigen@@@internal@Eigen@@QEAA@XZ
	??1?$evaluator_base@V?$Matrix@N$0?0$00$0A@$0?0$00@Eigen@@@internal@Eigen@@QEAA@XZ
	??1?$mapbase_evaluator@V?$Block@V?$Matrix@N$0?0$00$0A@$0?0$00@Eigen@@$0?0$0?0$0A@@Eigen@@V?$Matrix@N$0?0$0?0$0A@$0?0$00@2@@internal@Eigen@@QEAA@XZ
	??1?$vector@V?$Matrix@N$0?0$00$0A@$0?0$00@Eigen@@V?$allocator@V?$Matrix@N$0?0$00$0A@$0?0$00@Eigen@@@std@@@std@@QEAA@XZ
	??1_Iterator_base12@std@@QEAA@XZ
	??1_Sentry_base@?$basic_ostream@DU?$char_traits@D@std@@@std@@QEAA@XZ
	??1bad_alloc@std@@UEAA@XZ
	??1bad_array_new_length@std@@UEAA@XZ
	??1exception@std@@UEAA@XZ
	??1noncopyable@internal@Eigen@@IEAA@XZ
	??1sentry@?$basic_ostream@DU?$char_traits@D@std@@@std@@QEAA@XZ
	??2@YAPEAX_KPEAX@Z
	??3?$PlainObjectBase@V?$Matrix@N$0?0$00$0A@$0?0$00@Eigen@@@Eigen@@SAXPEAX@Z
	??4?$Block@V?$Matrix@N$0?0$00$0A@$0?0$00@Eigen@@$0?0$0?0$0A@@Eigen@@QEAAAEAV01@AEBV01@@Z
	??4?$BlockImpl@V?$Matrix@N$0?0$00$0A@$0?0$00@Eigen@@$0?0$0?0$0A@UDense@2@@Eigen@@QEAAAEAV01@AEBV01@@Z
	??4?$BlockImpl_dense@V?$Matrix@N$0?0$00$0A@$0?0$00@Eigen@@$0?0$0?0$0A@$00@internal@Eigen@@QEAAAEAV012@AEBV012@@Z
	??4?$MapBase@V?$Block@V?$Matrix@N$0?0$00$0A@$0?0$00@Eigen@@$0?0$0?0$0A@@Eigen@@$00@Eigen@@QEAAAEAV?$Block@V?$Matrix@N$0?0$00$0A@$0?0$00@Eigen@@$0?0$0?0$0A@@1@AEBV01@@Z
	??4?$Matrix@N$0?0$00$0A@$0?0$00@Eigen@@QEAAAEAV01@$$QEAV01@@Z
	??4?$Matrix@N$0?0$00$0A@$0?0$00@Eigen@@QEAAAEAV01@AEBV01@@Z
	??4?$MatrixBase@V?$Block@V?$Matrix@N$0?0$00$0A@$0?0$00@Eigen@@$0?0$0?0$0A@@Eigen@@@Eigen@@QEAAAEAV?$Block@V?$Matrix@N$0?0$00$0A@$0?0$00@Eigen@@$0?0$0?0$0A@@1@AEBV01@@Z
	??4?$vector@V?$Matrix@N$0?0$00$0A@$0?0$00@Eigen@@V?$allocator@V?$Matrix@N$0?0$00$0A@$0?0$00@Eigen@@@std@@@std@@QEAAAEAV01@V?$initializer_list@V?$Matrix@N$0?0$00$0A@$0?0$00@Eigen@@@1@@Z
	??4_Iterator_base12@std@@QEAAAEAU01@AEBU01@@Z
	??6?$DenseBase@V?$Matrix@N$0?0$00$0A@$0?0$00@Eigen@@@Eigen@@QEAA?AU?$CommaInitializer@V?$Matrix@N$0?0$00$0A@$0?0$00@Eigen@@@1@AEBN@Z
	??A?$DenseCoeffsBase@V?$Matrix@N$0?0$00$0A@$0?0$00@Eigen@@$00@Eigen@@QEAAAEAN_J@Z
	??A?$vector@V?$Matrix@N$0?0$00$0A@$0?0$00@Eigen@@V?$allocator@V?$Matrix@N$0?0$00$0A@$0?0$00@Eigen@@@std@@@std@@QEAAAEAV?$Matrix@N$0?0$00$0A@$0?0$00@Eigen@@_K@Z
	??Bsentry@?$basic_ostream@DU?$char_traits@D@std@@@std@@QEBA_NXZ
	??H?$_Vector_iterator@V?$_Vector_val@U?$_Simple_types@V?$Matrix@N$0?0$00$0A@$0?0$00@Eigen@@@std@@@std@@@std@@QEBA?AV01@_J@Z
	??Y?$_Vector_const_iterator@V?$_Vector_val@U?$_Simple_types@V?$Matrix@N$0?0$00$0A@$0?0$00@Eigen@@@std@@@std@@@std@@QEAAAEAV01@_J@Z
	??Y?$_Vector_iterator@V?$_Vector_val@U?$_Simple_types@V?$Matrix@N$0?0$00$0A@$0?0$00@Eigen@@@std@@@std@@@std@@QEAAAEAV01@_J@Z
	??_7bad_alloc@std@@6B@
	??_7bad_array_new_length@std@@6B@
	??_7exception@std@@6B@
	?_Adjust_manually_vector_aligned@std@@YAXAEAPEAXAEA_K@Z
	?_Adopt@_Iterator_base12@std@@QEAAXPEBU_Container_base12@2@@Z
	?_Adopt_locked@_Iterator_base12@std@@AEAAXPEBU_Container_base12@2@@Z
	?_Adopt_unlocked@_Iterator_base12@std@@AEAAXPEBU_Container_base12@2@@Z
	?_Allocate@_Default_allocate_traits@std@@SAPEAX_K@Z
	?_Assign_locked@_Iterator_base12@std@@AEAAXAEBU12@@Z
	?_Assign_unlocked@_Iterator_base12@std@@AEAAXAEBU12@@Z
	?_Buy_raw@?$vector@V?$Matrix@N$0?0$00$0A@$0?0$00@Eigen@@V?$allocator@V?$Matrix@N$0?0$00$0A@$0?0$00@Eigen@@@std@@@std@@AEAAX_K@Z
	?_Calculate_growth@?$vector@V?$Matrix@N$0?0$00$0A@$0?0$00@Eigen@@V?$allocator@V?$Matrix@N$0?0$00$0A@$0?0$00@Eigen@@@std@@@std@@AEBA_K_K@Z
	?_Change_array@?$vector@V?$Matrix@N$0?0$00$0A@$0?0$00@Eigen@@V?$allocator@V?$Matrix@N$0?0$00$0A@$0?0$00@Eigen@@@std@@@std@@AEAAXQEAV?$Matrix@N$0?0$00$0A@$0?0$00@Eigen@@_K1@Z
	?_Clear_and_reserve_geometric@?$vector@V?$Matrix@N$0?0$00$0A@$0?0$00@Eigen@@V?$allocator@V?$Matrix@N$0?0$00$0A@$0?0$00@Eigen@@@std@@@std@@AEAAX_K@Z
	?_Get_first@?$_Compressed_pair@V?$allocator@V?$Matrix@N$0?0$00$0A@$0?0$00@Eigen@@@std@@V?$_Vector_val@U?$_Simple_types@V?$Matrix@N$0?0$00$0A@$0?0$00@Eigen@@@std@@@2@$00@std@@QEAAAEAV?$allocator@V?$Matrix@N$0?0$00$0A@$0?0$00@Eigen@@@2@XZ
	?_Get_first@?$_Compressed_pair@V?$allocator@V?$Matrix@N$0?0$00$0A@$0?0$00@Eigen@@@std@@V?$_Vector_val@U?$_Simple_types@V?$Matrix@N$0?0$00$0A@$0?0$00@Eigen@@@std@@@2@$00@std@@QEBAAEBV?$allocator@V?$Matrix@N$0?0$00$0A@$0?0$00@Eigen@@@2@XZ
	?_Getal@?$vector@V?$Matrix@N$0?0$00$0A@$0?0$00@Eigen@@V?$allocator@V?$Matrix@N$0?0$00$0A@$0?0$00@Eigen@@@std@@@std@@AEAAAEAV?$allocator@V?$Matrix@N$0?0$00$0A@$0?0$00@Eigen@@@2@XZ
	?_Getal@?$vector@V?$Matrix@N$0?0$00$0A@$0?0$00@Eigen@@V?$allocator@V?$Matrix@N$0?0$00$0A@$0?0$00@Eigen@@@std@@@std@@AEBAAEBV?$allocator@V?$Matrix@N$0?0$00$0A@$0?0$00@Eigen@@@2@XZ
	?_Getcont@_Iterator_base12@std@@QEBAPEBU_Container_base12@2@XZ
	?_Orphan_all@_Container_base12@std@@QEAAXXZ
	?_Orphan_all_locked_v3@_Container_base12@std@@AEAAXXZ
	?_Orphan_all_unlocked_v3@_Container_base12@std@@AEAAXXZ
	?_Orphan_me_locked_v3@_Iterator_base12@std@@AEAAXXZ
	?_Orphan_me_unlocked_v3@_Iterator_base12@std@@AEAAXXZ
	?_Orphan_range@?$vector@V?$Matrix@N$0?0$00$0A@$0?0$00@Eigen@@V?$allocator@V?$Matrix@N$0?0$00$0A@$0?0$00@Eigen@@@std@@@std@@AEBAXPEAV?$Matrix@N$0?0$00$0A@$0?0$00@Eigen@@0@Z
	?_Orphan_range_locked@?$vector@V?$Matrix@N$0?0$00$0A@$0?0$00@Eigen@@V?$allocator@V?$Matrix@N$0?0$00$0A@$0?0$00@Eigen@@@std@@@std@@AEBAXPEAV?$Matrix@N$0?0$00$0A@$0?0$00@Eigen@@0@Z
	?_Orphan_range_unlocked@?$vector@V?$Matrix@N$0?0$00$0A@$0?0$00@Eigen@@V?$allocator@V?$Matrix@N$0?0$00$0A@$0?0$00@Eigen@@@std@@@std@@AEBAXPEAV?$Matrix@N$0?0$00$0A@$0?0$00@Eigen@@0@Z
	?_Release@?$_Uninitialized_backout_al@V?$allocator@V?$Matrix@N$0?0$00$0A@$0?0$00@Eigen@@@std@@@std@@QEAAPEAV?$Matrix@N$0?0$00$0A@$0?0$00@Eigen@@XZ
	?_Throw_bad_array_new_length@std@@YAXXZ
	?_Tidy@?$vector@V?$Matrix@N$0?0$00$0A@$0?0$00@Eigen@@V?$allocator@V?$Matrix@N$0?0$00$0A@$0?0$00@Eigen@@@std@@@std@@AEAAXXZ
	?_Verify_offset@?$_Vector_const_iterator@V?$_Vector_val@U?$_Simple_types@V?$Matrix@N$0?0$00$0A@$0?0$00@Eigen@@@std@@@std@@@std@@QEBAX_J@Z
	?_Xlength@?$vector@V?$Matrix@N$0?0$00$0A@$0?0$00@Eigen@@V?$allocator@V?$Matrix@N$0?0$00$0A@$0?0$00@Eigen@@@std@@@std@@CAXXZ
	?__empty_global_delete@@YAXPEAX@Z
	?__empty_global_delete@@YAXPEAX_K@Z
	?_check_template_params@?$PlainObjectBase@V?$Matrix@N$0?0$00$0A@$0?0$00@Eigen@@@Eigen@@SAXXZ
	?add_timepoint@TimeSeries@@QEAA_NNV?$Matrix@N$0?0$00$0A@$0?0$00@Eigen@@@Z
	?aligned_free@internal@Eigen@@YAXPEAX@Z
	?aligned_malloc@internal@Eigen@@YAPEAX_K@Z
	?aligned_realloc@internal@Eigen@@YAPEAXPEAX_K1@Z
	?allocate@?$allocator@U_Container_proxy@std@@@std@@QEAAPEAU_Container_proxy@2@_K@Z
	?allocate@?$allocator@V?$Matrix@N$0?0$00$0A@$0?0$00@Eigen@@@std@@QEAAPEAV?$Matrix@N$0?0$00$0A@$0?0$00@Eigen@@_K@Z
	?assignCoeff@?$assign_op@NN@internal@Eigen@@QEBAXAEANAEBN@Z
	?assignCoeff@?$generic_dense_assignment_kernel@U?$evaluator@V?$Block@V?$Matrix@N$0?0$00$0A@$0?0$00@Eigen@@$0?0$0?0$0A@@Eigen@@@internal@Eigen@@U123@U?$assign_op@NN@23@$0A@@internal@Eigen@@QEAAX_J0@Z
	?assignCoeff@?$generic_dense_assignment_kernel@U?$evaluator@V?$Block@V?$Matrix@N$0?0$00$0A@$0?0$00@Eigen@@$0?0$0?0$0A@@Eigen@@@internal@Eigen@@U?$evaluator@V?$Matrix@N$0?0$00$0A@$0?0$00@Eigen@@@23@U?$assign_op@NN@23@$0A@@internal@Eigen@@QEAAX_J0@Z
	?assignCoeff@?$generic_dense_assignment_kernel@U?$evaluator@V?$Matrix@N$0?0$00$0A@$0?0$00@Eigen@@@internal@Eigen@@U123@U?$assign_op@NN@23@$0A@@internal@Eigen@@QEAAX_J@Z
	?assignCoeffByOuterInner@?$generic_dense_assignment_kernel@U?$evaluator@V?$Block@V?$Matrix@N$0?0$00$0A@$0?0$00@Eigen@@$0?0$0?0$0A@@Eigen@@@internal@Eigen@@U123@U?$assign_op@NN@23@$0A@@internal@Eigen@@QEAAX_J0@Z
	?assignCoeffByOuterInner@?$generic_dense_assignment_kernel@U?$evaluator@V?$Block@V?$Matrix@N$0?0$00$0A@$0?0$00@Eigen@@$0?0$0?0$0A@@Eigen@@@internal@Eigen@@U?$evaluator@V?$Matrix@N$0?0$00$0A@$0?0$00@Eigen@@@23@U?$assign_op@NN@23@$0A@@internal@Eigen@@QEAAX_J0@Z
	?begin@?$initializer_list@V?$Matrix@N$0?0$00$0A@$0?0$00@Eigen@@@std@@QEBAPEBV?$Matrix@N$0?0$00$0A@$0?0$00@Eigen@@XZ
	?begin@?$vector@V?$Matrix@N$0?0$00$0A@$0?0$00@Eigen@@V?$allocator@V?$Matrix@N$0?0$00$0A@$0?0$00@Eigen@@@std@@@std@@QEAA?AV?$_Vector_iterator@V?$_Vector_val@U?$_Simple_types@V?$Matrix@N$0?0$00$0A@$0?0$00@Eigen@@@std@@@std@@@2@XZ
	?block@?$DenseBase@V?$Matrix@N$0?0$00$0A@$0?0$00@Eigen@@@Eigen@@QEAA?AV?$Block@V?$Matrix@N$0?0$00$0A@$0?0$00@Eigen@@$0?0$0?0$0A@@2@_J000@Z
	?capacity@?$vector@V?$Matrix@N$0?0$00$0A@$0?0$00@Eigen@@V?$allocator@V?$Matrix@N$0?0$00$0A@$0?0$00@Eigen@@@std@@@std@@QEBA_KXZ
	?check_that_malloc_is_allowed@internal@Eigen@@YAXXZ
	?coeff@?$evaluator@V?$PlainObjectBase@V?$Matrix@N$0?0$00$0A@$0?0$00@Eigen@@@Eigen@@@internal@Eigen@@QEBAAEBN_J0@Z
	?coeff@?$evaluator@V?$PlainObjectBase@V?$Matrix@N$0?0$00$0A@$0?0$00@Eigen@@@Eigen@@@internal@Eigen@@QEBAAEBN_J@Z
	?coeff@?$mapbase_evaluator@V?$Block@V?$Matrix@N$0?0$00$0A@$0?0$00@Eigen@@$0?0$0?0$0A@@Eigen@@V?$Matrix@N$0?0$0?0$0A@$0?0$00@2@@internal@Eigen@@QEBAAEBN_J0@Z
	?coeffRef@?$DenseCoeffsBase@V?$Matrix@N$0?0$00$0A@$0?0$00@Eigen@@$00@Eigen@@QEAAAEAN_J@Z
	?coeffRef@?$PlainObjectBase@V?$Matrix@N$0?0$00$0A@$0?0$00@Eigen@@@Eigen@@QEAAAEAN_J0@Z
	?coeffRef@?$evaluator@V?$PlainObjectBase@V?$Matrix@N$0?0$00$0A@$0?0$00@Eigen@@@Eigen@@@internal@Eigen@@QEAAAEAN_J@Z
	?coeffRef@?$mapbase_evaluator@V?$Block@V?$Matrix@N$0?0$00$0A@$0?0$00@Eigen@@$0?0$0?0$0A@@Eigen@@V?$Matrix@N$0?0$0?0$0A@$0?0$00@2@@internal@Eigen@@QEAAAEAN_J0@Z
	?colIndexByOuterInner@?$generic_dense_assignment_kernel@U?$evaluator@V?$Block@V?$Matrix@N$0?0$00$0A@$0?0$00@Eigen@@$0?0$0?0$0A@@Eigen@@@internal@Eigen@@U123@U?$assign_op@NN@23@$0A@@internal@Eigen@@SA_J_J0@Z
	?colIndexByOuterInner@?$generic_dense_assignment_kernel@U?$evaluator@V?$Block@V?$Matrix@N$0?0$00$0A@$0?0$00@Eigen@@$0?0$0?0$0A@@Eigen@@@internal@Eigen@@U?$evaluator@V?$Matrix@N$0?0$00$0A@$0?0$00@Eigen@@@23@U?$assign_op@NN@23@$0A@@internal@Eigen@@SA_J_J0@Z
	?colStride@?$mapbase_evaluator@V?$Block@V?$Matrix@N$0?0$00$0A@$0?0$00@Eigen@@$0?0$0?0$0A@@Eigen@@V?$Matrix@N$0?0$0?0$0A@$0?0$00@2@@internal@Eigen@@IEBA_JXZ
	?cols@?$DenseStorage@N$0?0$0?0$00$0A@@Eigen@@SA_JXZ
	?cols@?$EigenBase@V?$Block@V?$Matrix@N$0?0$00$0A@$0?0$00@Eigen@@$0?0$0?0$0A@@Eigen@@@Eigen@@QEBA_JXZ
	?cols@?$EigenBase@V?$Matrix@N$0?0$00$0A@$0?0$00@Eigen@@@Eigen@@QEBA_JXZ
	?cols@?$MapBase@V?$Block@V?$Matrix@N$0?0$00$0A@$0?0$00@Eigen@@$0?0$0?0$0A@@Eigen@@$0A@@Eigen@@QEBA_JXZ
	?cols@?$PlainObjectBase@V?$Matrix@N$0?0$00$0A@$0?0$00@Eigen@@@Eigen@@QEBA_JXZ
	?conservativeResize@?$DenseStorage@N$0?0$0?0$00$0A@@Eigen@@QEAAX_J00@Z
	?conservativeResize@?$PlainObjectBase@V?$Matrix@N$0?0$00$0A@$0?0$00@Eigen@@@Eigen@@QEAAX_J0@Z
	?const_cast_derived@?$EigenBase@V?$Block@V?$Matrix@N$0?0$00$0A@$0?0$00@Eigen@@$0?0$0?0$0A@@Eigen@@@Eigen@@QEBAAEAV?$Block@V?$Matrix@N$0?0$00$0A@$0?0$00@Eigen@@$0?0$0?0$0A@@2@XZ
	?const_cast_derived@?$EigenBase@V?$Matrix@N$0?0$00$0A@$0?0$00@Eigen@@@Eigen@@QEBAAEAV?$Matrix@N$0?0$00$0A@$0?0$00@2@XZ
	?data@?$DenseStorage@N$0?0$0?0$00$0A@@Eigen@@QEAAPEANXZ
	?data@?$DenseStorage@N$0?0$0?0$00$0A@@Eigen@@QEBAPEBNXZ
	?data@?$MapBase@V?$Block@V?$Matrix@N$0?0$00$0A@$0?0$00@Eigen@@$0?0$0?0$0A@@Eigen@@$00@Eigen@@QEAAPEANXZ
	?data@?$MapBase@V?$Block@V?$Matrix@N$0?0$00$0A@$0?0$00@Eigen@@$0?0$0?0$0A@@Eigen@@$00@Eigen@@QEBAPEBNXZ
	?data@?$PlainObjectBase@V?$Matrix@N$0?0$00$0A@$0?0$00@Eigen@@@Eigen@@QEAAPEANXZ
	?data@?$PlainObjectBase@V?$Matrix@N$0?0$00$0A@$0?0$00@Eigen@@@Eigen@@QEBAPEBNXZ
	?deallocate@?$_Default_allocator_traits@V?$allocator@U_Container_proxy@std@@@std@@@std@@SAXAEAV?$allocator@U_Container_proxy@std@@@2@QEAU_Container_proxy@2@_K@Z
	?deallocate@?$allocator@V?$Matrix@N$0?0$00$0A@$0?0$00@Eigen@@@std@@QEAAXQEAV?$Matrix@N$0?0$00$0A@$0?0$00@Eigen@@_K@Z
	?derived@?$EigenBase@V?$Block@V?$Matrix@N$0?0$00$0A@$0?0$00@Eigen@@$0?0$0?0$0A@@Eigen@@@Eigen@@QEAAAEAV?$Block@V?$Matrix@N$0?0$00$0A@$0?0$00@Eigen@@$0?0$0?0$0A@@2@XZ
	?derived@?$EigenBase@V?$Block@V?$Matrix@N$0?0$00$0A@$0?0$00@Eigen@@$0?0$0?0$0A@@Eigen@@@Eigen@@QEBAAEBV?$Block@V?$Matrix@N$0?0$00$0A@$0?0$00@Eigen@@$0?0$0?0$0A@@2@XZ
	?derived@?$EigenBase@V?$Matrix@N$0?0$00$0A@$0?0$00@Eigen@@@Eigen@@QEAAAEAV?$Matrix@N$0?0$00$0A@$0?0$00@2@XZ
	?derived@?$EigenBase@V?$Matrix@N$0?0$00$0A@$0?0$00@Eigen@@@Eigen@@QEBAAEBV?$Matrix@N$0?0$00$0A@$0?0$00@2@XZ
	?dstDataPtr@?$generic_dense_assignment_kernel@U?$evaluator@V?$Block@V?$Matrix@N$0?0$00$0A@$0?0$00@Eigen@@$0?0$0?0$0A@@Eigen@@@internal@Eigen@@U123@U?$assign_op@NN@23@$0A@@internal@Eigen@@QEBAPEBNXZ
	?dstDataPtr@?$generic_dense_assignment_kernel@U?$evaluator@V?$Block@V?$Matrix@N$0?0$00$0A@$0?0$00@Eigen@@$0?0$0?0$0A@@Eigen@@@internal@Eigen@@U?$evaluator@V?$Matrix@N$0?0$00$0A@$0?0$00@Eigen@@@23@U?$assign_op@NN@23@$0A@@internal@Eigen@@QEBAPEBNXZ
	?dstDataPtr@?$generic_dense_assignment_kernel@U?$evaluator@V?$Matrix@N$0?0$00$0A@$0?0$00@Eigen@@@internal@Eigen@@U123@U?$assign_op@NN@23@$0A@@internal@Eigen@@QEBAPEBNXZ
	?eof@?$_Narrow_char_traits@DH@std@@SAHXZ
	?eq_int_type@?$_Narrow_char_traits@DH@std@@SA_NAEBH0@Z
	?erase@?$vector@V?$Matrix@N$0?0$00$0A@$0?0$00@Eigen@@V?$allocator@V?$Matrix@N$0?0$00$0A@$0?0$00@Eigen@@@std@@@std@@QEAA?AV?$_Vector_iterator@V?$_Vector_val@U?$_Simple_types@V?$Matrix@N$0?0$00$0A@$0?0$00@Eigen@@@std@@@std@@@2@V?$_Vector_const_iterator@V?$_Vector_val@U?$_Simple_types@V?$Matrix@N$0?0$00$0A@$0?0$00@Eigen@@@std@@@std@@@2@@Z
	?finished@?$CommaInitializer@V?$Matrix@N$0?0$00$0A@$0?0$00@Eigen@@@Eigen@@QEAAAEAV?$Matrix@N$0?0$00$0A@$0?0$00@2@XZ
	?get_value@TimeSeries@@QEAA?AV?$Matrix@N$0?0$00$0A@$0?0$00@Eigen@@_K@Z
	?init@?$BlockImpl_dense@V?$Matrix@N$0?0$00$0A@$0?0$00@Eigen@@$0?0$0?0$0A@$00@internal@Eigen@@IEAAXXZ
	?innerSize@?$DenseBase@V?$Block@V?$Matrix@N$0?0$00$0A@$0?0$00@Eigen@@$0?0$0?0$0A@@Eigen@@@Eigen@@QEBA_JXZ
	?innerSize@?$DenseBase@V?$Matrix@N$0?0$00$0A@$0?0$00@Eigen@@@Eigen@@QEBA_JXZ
	?innerSize@?$generic_dense_assignment_kernel@U?$evaluator@V?$Block@V?$Matrix@N$0?0$00$0A@$0?0$00@Eigen@@$0?0$0?0$0A@@Eigen@@@internal@Eigen@@U123@U?$assign_op@NN@23@$0A@@internal@Eigen@@QEBA_JXZ
	?innerSize@?$generic_dense_assignment_kernel@U?$evaluator@V?$Block@V?$Matrix@N$0?0$00$0A@$0?0$00@Eigen@@$0?0$0?0$0A@@Eigen@@@internal@Eigen@@U?$evaluator@V?$Matrix@N$0?0$00$0A@$0?0$00@Eigen@@@23@U?$assign_op@NN@23@$0A@@internal@Eigen@@QEBA_JXZ
	?innerStride@?$BlockImpl_dense@V?$Matrix@N$0?0$00$0A@$0?0$00@Eigen@@$0?0$0?0$0A@$00@internal@Eigen@@QEBA_JXZ
	?innerStride@?$Matrix@N$0?0$00$0A@$0?0$00@Eigen@@QEBA_JXZ
	?length@?$_Narrow_char_traits@DH@std@@SA_KQEBD@Z
	?max@?$numeric_limits@_J@std@@SA_JXZ
	?max_size@?$_Default_allocator_traits@V?$allocator@V?$Matrix@N$0?0$00$0A@$0?0$00@Eigen@@@std@@@std@@SA_KAEBV?$allocator@V?$Matrix@N$0?0$00$0A@$0?0$00@Eigen@@@2@@Z
	?max_size@?$vector@V?$Matrix@N$0?0$00$0A@$0?0$00@Eigen@@V?$allocator@V?$Matrix@N$0?0$00$0A@$0?0$00@Eigen@@@std@@@std@@QEBA_KXZ
	?outerSize@?$DenseBase@V?$Block@V?$Matrix@N$0?0$00$0A@$0?0$00@Eigen@@$0?0$0?0$0A@@Eigen@@@Eigen@@QEBA_JXZ
	?outerSize@?$generic_dense_assignment_kernel@U?$evaluator@V?$Block@V?$Matrix@N$0?0$00$0A@$0?0$00@Eigen@@$0?0$0?0$0A@@Eigen@@@internal@Eigen@@U123@U?$assign_op@NN@23@$0A@@internal@Eigen@@QEBA_JXZ
	?outerSize@?$generic_dense_assignment_kernel@U?$evaluator@V?$Block@V?$Matrix@N$0?0$00$0A@$0?0$00@Eigen@@$0?0$0?0$0A@@Eigen@@@internal@Eigen@@U?$evaluator@V?$Matrix@N$0?0$00$0A@$0?0$00@Eigen@@@23@U?$assign_op@NN@23@$0A@@internal@Eigen@@QEBA_JXZ
	?outerStride@?$BlockImpl_dense@V?$Matrix@N$0?0$00$0A@$0?0$00@Eigen@@$0?0$0?0$0A@$00@internal@Eigen@@QEBA_JXZ
	?outerStride@?$DenseCoeffsBase@V?$Matrix@N$0?0$00$0A@$0?0$00@Eigen@@$02@Eigen@@QEBA_JXZ
	?outerStride@?$Matrix@N$0?0$00$0A@$0?0$00@Eigen@@QEBA_JXZ
	?outerStride@?$generic_dense_assignment_kernel@U?$evaluator@V?$Block@V?$Matrix@N$0?0$00$0A@$0?0$00@Eigen@@$0?0$0?0$0A@@Eigen@@@internal@Eigen@@U123@U?$assign_op@NN@23@$0A@@internal@Eigen@@QEBA_JXZ
	?outerStride@?$generic_dense_assignment_kernel@U?$evaluator@V?$Block@V?$Matrix@N$0?0$00$0A@$0?0$00@Eigen@@$0?0$0?0$0A@@Eigen@@@internal@Eigen@@U?$evaluator@V?$Matrix@N$0?0$00$0A@$0?0$00@Eigen@@@23@U?$assign_op@NN@23@$0A@@internal@Eigen@@QEBA_JXZ
	?push_back@?$vector@V?$Matrix@N$0?0$00$0A@$0?0$00@Eigen@@V?$allocator@V?$Matrix@N$0?0$00$0A@$0?0$00@Eigen@@@std@@@std@@QEAAXAEBV?$Matrix@N$0?0$00$0A@$0?0$00@Eigen@@@Z
	?remove_timepoint@TimeSeries@@QEAA_N_K@Z
	?resize@?$DenseBase@V?$Block@V?$Matrix@N$0?0$00$0A@$0?0$00@Eigen@@$0?0$0?0$0A@@Eigen@@@Eigen@@QEAAX_J0@Z
	?resize@?$DenseStorage@N$0?0$0?0$00$0A@@Eigen@@QEAAX_J00@Z
	?resize@?$PlainObjectBase@V?$Matrix@N$0?0$00$0A@$0?0$00@Eigen@@@Eigen@@QEAAX_J0@Z
	?rowIndexByOuterInner@?$generic_dense_assignment_kernel@U?$evaluator@V?$Block@V?$Matrix@N$0?0$00$0A@$0?0$00@Eigen@@$0?0$0?0$0A@@Eigen@@@internal@Eigen@@U123@U?$assign_op@NN@23@$0A@@internal@Eigen@@SA_J_J0@Z
	?rowIndexByOuterInner@?$generic_dense_assignment_kernel@U?$evaluator@V?$Block@V?$Matrix@N$0?0$00$0A@$0?0$00@Eigen@@$0?0$0?0$0A@@Eigen@@@internal@Eigen@@U?$evaluator@V?$Matrix@N$0?0$00$0A@$0?0$00@Eigen@@@23@U?$assign_op@NN@23@$0A@@internal@Eigen@@SA_J_J0@Z
	?rowStride@?$mapbase_evaluator@V?$Block@V?$Matrix@N$0?0$00$0A@$0?0$00@Eigen@@$0?0$0?0$0A@@Eigen@@V?$Matrix@N$0?0$0?0$0A@$0?0$00@2@@internal@Eigen@@IEBA_JXZ
	?rows@?$DenseStorage@N$0?0$0?0$00$0A@@Eigen@@QEBA_JXZ
	?rows@?$EigenBase@V?$Block@V?$Matrix@N$0?0$00$0A@$0?0$00@Eigen@@$0?0$0?0$0A@@Eigen@@@Eigen@@QEBA_JXZ
	?rows@?$EigenBase@V?$Matrix@N$0?0$00$0A@$0?0$00@Eigen@@@Eigen@@QEBA_JXZ
	?rows@?$MapBase@V?$Block@V?$Matrix@N$0?0$00$0A@$0?0$00@Eigen@@$0?0$0?0$0A@@Eigen@@$0A@@Eigen@@QEBA_JXZ
	?rows@?$PlainObjectBase@V?$Matrix@N$0?0$00$0A@$0?0$00@Eigen@@@Eigen@@QEBA_JXZ
	?run@?$Assignment@V?$Block@V?$Matrix@N$0?0$00$0A@$0?0$00@Eigen@@$0?0$0?0$0A@@Eigen@@V12@U?$assign_op@NN@internal@2@UDense2Dense@42@X@internal@Eigen@@SAXAEAV?$Block@V?$Matrix@N$0?0$00$0A@$0?0$00@Eigen@@$0?0$0?0$0A@@3@AEBV43@AEBU?$assign_op@NN@23@@Z
	?run@?$Assignment@V?$Block@V?$Matrix@N$0?0$00$0A@$0?0$00@Eigen@@$0?0$0?0$0A@@Eigen@@V?$Matrix@N$0?0$00$0A@$0?0$00@2@U?$assign_op@NN@internal@2@UDense2Dense@52@X@internal@Eigen@@SAXAEAV?$Block@V?$Matrix@N$0?0$00$0A@$0?0$00@Eigen@@$0?0$0?0$0A@@3@AEBV?$Matrix@N$0?0$00$0A@$0?0$00@3@AEBU?$assign_op@NN@23@@Z
	?run@?$Assignment@V?$Matrix@N$0?0$00$0A@$0?0$00@Eigen@@V12@U?$assign_op@NN@internal@2@UDense2Dense@42@X@internal@Eigen@@SAXAEAV?$Matrix@N$0?0$00$0A@$0?0$00@3@AEBV43@AEBU?$assign_op@NN@23@@Z
	?run@?$checkTransposeAliasing_impl@V?$Block@V?$Matrix@N$0?0$00$0A@$0?0$00@Eigen@@$0?0$0?0$0A@@Eigen@@V12@$0A@@internal@Eigen@@SAXAEBV?$Block@V?$Matrix@N$0?0$00$0A@$0?0$00@Eigen@@$0?0$0?0$0A@@3@0@Z
	?run@?$checkTransposeAliasing_impl@V?$Block@V?$Matrix@N$0?0$00$0A@$0?0$00@Eigen@@$0?0$0?0$0A@@Eigen@@V?$Matrix@N$0?0$00$0A@$0?0$00@2@$0A@@internal@Eigen@@SAXAEBV?$Block@V?$Matrix@N$0?0$00$0A@$0?0$00@Eigen@@$0?0$0?0$0A@@3@AEBV?$Matrix@N$0?0$00$0A@$0?0$00@3@@Z
	?run@?$checkTransposeAliasing_impl@V?$Matrix@N$0?0$00$0A@$0?0$00@Eigen@@V12@$0A@@internal@Eigen@@SAXAEBV?$Matrix@N$0?0$00$0A@$0?0$00@3@0@Z
	?run@?$conservative_resize_like_impl@V?$Matrix@N$0?0$00$0A@$0?0$00@Eigen@@V12@$0A@@internal@Eigen@@SAXAEAV?$DenseBase@V?$Matrix@N$0?0$00$0A@$0?0$00@Eigen@@@3@_J1@Z
	?run@?$dense_assignment_loop@V?$generic_dense_assignment_kernel@U?$evaluator@V?$Block@V?$Matrix@N$0?0$00$0A@$0?0$00@Eigen@@$0?0$0?0$0A@@Eigen@@@internal@Eigen@@U123@U?$assign_op@NN@23@$0A@@internal@Eigen@@$03$0A@@internal@Eigen@@SAXAEAV?$generic_dense_assignment_kernel@U?$evaluator@V?$Block@V?$Matrix@N$0?0$00$0A@$0?0$00@Eigen@@$0?0$0?0$0A@@Eigen@@@internal@Eigen@@U123@U?$assign_op@NN@23@$0A@@23@@Z
	?run@?$dense_assignment_loop@V?$generic_dense_assignment_kernel@U?$evaluator@V?$Block@V?$Matrix@N$0?0$00$0A@$0?0$00@Eigen@@$0?0$0?0$0A@@Eigen@@@internal@Eigen@@U123@U?$assign_op@NN@23@$0A@@internal@Eigen@@$0A@$0A@@internal@Eigen@@SAXAEAV?$generic_dense_assignment_kernel@U?$evaluator@V?$Block@V?$Matrix@N$0?0$00$0A@$0?0$00@Eigen@@$0?0$0?0$0A@@Eigen@@@internal@Eigen@@U123@U?$assign_op@NN@23@$0A@@23@@Z
	?run@?$dense_assignment_loop@V?$generic_dense_assignment_kernel@U?$evaluator@V?$Block@V?$Matrix@N$0?0$00$0A@$0?0$00@Eigen@@$0?0$0?0$0A@@Eigen@@@internal@Eigen@@U?$evaluator@V?$Matrix@N$0?0$00$0A@$0?0$00@Eigen@@@23@U?$assign_op@NN@23@$0A@@internal@Eigen@@$03$0A@@internal@Eigen@@SAXAEAV?$generic_dense_assignment_kernel@U?$evaluator@V?$Block@V?$Matrix@N$0?0$00$0A@$0?0$00@Eigen@@$0?0$0?0$0A@@Eigen@@@internal@Eigen@@U?$evaluator@V?$Matrix@N$0?0$00$0A@$0?0$00@Eigen@@@23@U?$assign_op@NN@23@$0A@@23@@Z
	?run@?$dense_assignment_loop@V?$generic_dense_assignment_kernel@U?$evaluator@V?$Block@V?$Matrix@N$0?0$00$0A@$0?0$00@Eigen@@$0?0$0?0$0A@@Eigen@@@internal@Eigen@@U?$evaluator@V?$Matrix@N$0?0$00$0A@$0?0$00@Eigen@@@23@U?$assign_op@NN@23@$0A@@internal@Eigen@@$0A@$0A@@internal@Eigen@@SAXAEAV?$generic_dense_assignment_kernel@U?$evaluator@V?$Block@V?$Matrix@N$0?0$00$0A@$0?0$00@Eigen@@$0?0$0?0$0A@@Eigen@@@internal@Eigen@@U?$evaluator@V?$Matrix@N$0?0$00$0A@$0?0$00@Eigen@@@23@U?$assign_op@NN@23@$0A@@23@@Z
	?run@?$dense_assignment_loop@V?$generic_dense_assignment_kernel@U?$evaluator@V?$Matrix@N$0?0$00$0A@$0?0$00@Eigen@@@internal@Eigen@@U123@U?$assign_op@NN@23@$0A@@internal@Eigen@@$02$0A@@internal@Eigen@@SAXAEAV?$generic_dense_assignment_kernel@U?$evaluator@V?$Matrix@N$0?0$00$0A@$0?0$00@Eigen@@@internal@Eigen@@U123@U?$assign_op@NN@23@$0A@@23@@Z
	?run@?$matrix_swap_impl@V?$Matrix@N$0?0$00$0A@$0?0$00@Eigen@@V12@$00@internal@Eigen@@SAXAEAV?$Matrix@N$0?0$00$0A@$0?0$00@3@0@Z
	?run@?$smart_copy_helper@N$00@internal@Eigen@@SAXPEBN0PEAN@Z
	?size@?$EigenBase@V?$Block@V?$Matrix@N$0?0$00$0A@$0?0$00@Eigen@@$0?0$0?0$0A@@Eigen@@@Eigen@@QEBA_JXZ
	?size@?$EigenBase@V?$Matrix@N$0?0$00$0A@$0?0$00@Eigen@@@Eigen@@QEBA_JXZ
	?size@?$generic_dense_assignment_kernel@U?$evaluator@V?$Matrix@N$0?0$00$0A@$0?0$00@Eigen@@@internal@Eigen@@U123@U?$assign_op@NN@23@$0A@@internal@Eigen@@QEBA_JXZ
	?size@?$initializer_list@V?$Matrix@N$0?0$00$0A@$0?0$00@Eigen@@@std@@QEBA_KXZ
	?swap@?$DenseStorage@N$0?0$0?0$00$0A@@Eigen@@QEAAXAEAV12@@Z
	?throw_std_bad_alloc@internal@Eigen@@YAXXZ
	?value@?$variable_if_dynamic@_J$00@internal@Eigen@@SA_JXZ
	?value@?$variable_if_dynamic@_J$0?0@internal@Eigen@@QEBA_JXZ
	?value@?$variable_if_dynamic@_J$0A@@internal@Eigen@@SA_JXZ
	?what@exception@std@@UEBAPEBDXZ
